; Function Attrs: mustprogress nounwind uwtable
define hidden noundef ptr @_ZN7TypeInt4makeEi(i32 noundef %0) local_unnamed_addr #0 align 2 {
  %2 = tail call align 8 ptr @llvm.threadlocal.address.p0(ptr align 8 @_ZN6Thread12_thr_currentE)
  %3 = load ptr, ptr %2, align 8
  %4 = getelementptr inbounds i8, ptr %3, i64 1808
  %5 = load ptr, ptr %4, align 8
  %6 = getelementptr inbounds i8, ptr %5, i64 128
  %7 = load ptr, ptr %6, align 8
  %8 = getelementptr inbounds i8, ptr %7, i64 888
  store i64 32, ptr %8, align 8
  %9 = getelementptr inbounds i8, ptr %7, i64 848
  %10 = load ptr, ptr %9, align 8
  %11 = getelementptr inbounds i8, ptr %10, i64 40
  %12 = load ptr, ptr %11, align 8
  %13 = getelementptr inbounds i8, ptr %10, i64 32
  %14 = load ptr, ptr %13, align 8
  %15 = ptrtoint ptr %12 to i64
  %16 = ptrtoint ptr %14 to i64
  %17 = sub i64 %15, %16
  %.not.i.i.i = icmp ult i64 %17, 32
  br i1 %.not.i.i.i, label %20, label %18

18:                                               ; preds = %1
  %19 = getelementptr inbounds i8, ptr %14, i64 32
  store ptr %19, ptr %13, align 8
  br label %_ZN4TypenwEm.exit

20:                                               ; preds = %1
  %21 = tail call noundef ptr @_ZN5Arena4growEmN17AllocFailStrategy13AllocFailEnumE(ptr noundef nonnull align 8 dereferenceable(48) %10, i64 noundef 32, i32 noundef 0) #17
  br label %_ZN4TypenwEm.exit

_ZN4TypenwEm.exit:                                ; preds = %18, %20
  %.0.i.i.i = phi ptr [ %14, %18 ], [ %21, %20 ]
  %22 = icmp ne ptr %.0.i.i.i, null
  tail call void @llvm.assume(i1 %22)
  %23 = getelementptr inbounds i8, ptr %.0.i.i.i, i64 8
  store ptr null, ptr %23, align 8
  %24 = getelementptr inbounds i8, ptr %.0.i.i.i, i64 16
  store i32 3, ptr %24, align 8
  %25 = getelementptr inbounds i8, ptr %.0.i.i.i, i64 20
  store i16 0, ptr %25, align 4
  store ptr getelementptr inbounds inrange(-16, 200) (i8, ptr @_ZTV7TypeInt, i64 16), ptr %.0.i.i.i, align 8
  %26 = getelementptr inbounds i8, ptr %.0.i.i.i, i64 24
  store i32 %0, ptr %26, align 8
  %27 = getelementptr inbounds i8, ptr %.0.i.i.i, i64 28
  store i32 %0, ptr %27, align 4
  %28 = tail call noundef ptr @_ZN4Type8hashconsEv(ptr noundef nonnull align 8 dereferenceable(20) %.0.i.i.i)
  ret ptr %28
}